; Function Attrs: nounwind uwtable
define ptr @l_Lean_Elab_instToSnapshotTreeHeaderProcessedSnapshot___lambda__1(ptr noundef %0) local_unnamed_addr #1 {
  %2 = ptrtoint ptr %0 to i64
  %3 = and i64 %2, 1
  %.not.i = icmp eq i64 %3, 0
  br i1 %.not.i, label %7, label %4

4:                                                ; preds = %1
  %5 = lshr i64 %2, 1
  %6 = trunc i64 %5 to i32
  br label %lean_obj_tag.exit

7:                                                ; preds = %1
  %8 = getelementptr i8, ptr %0, i64 4
  %.val.i = load i32, ptr %8, align 4
  %9 = lshr i32 %.val.i, 24
  br label %lean_obj_tag.exit

lean_obj_tag.exit:                                ; preds = %4, %7
  %.0.i = phi i32 [ %6, %4 ], [ %9, %7 ]
  %10 = icmp eq i32 %.0.i, 0
  br i1 %10, label %11, label %13

11:                                               ; preds = %lean_obj_tag.exit
  %12 = load ptr, ptr @l_Lean_Elab_instToSnapshotTreeHeaderProcessedSnapshot___lambda__1___closed__10, align 8, !tbaa !10
  br label %42

13:                                               ; preds = %lean_obj_tag.exit
  %14 = getelementptr inbounds nuw i8, ptr %0, i64 8
  %15 = load ptr, ptr %14, align 8, !tbaa !10
  %16 = getelementptr inbounds nuw i8, ptr %15, i64 8
  %17 = load ptr, ptr %16, align 8, !tbaa !10
  %18 = getelementptr inbounds nuw i8, ptr %15, i64 32
  %19 = load ptr, ptr %18, align 8, !tbaa !10
  %20 = ptrtoint ptr %19 to i64
  %21 = and i64 %20, 1
  %.not = icmp eq i64 %21, 0
  br i1 %.not, label %22, label %lean_inc.exit13

22:                                               ; preds = %13
  %.val.i14 = load i32, ptr %19, align 4, !tbaa !4
  %23 = icmp sgt i32 %.val.i14, 0
  br i1 %23, label %24, label %26, !prof !9

24:                                               ; preds = %22
  %25 = add nuw i32 %.val.i14, 1
  store i32 %25, ptr %19, align 4, !tbaa !4
  br label %lean_inc.exit13

26:                                               ; preds = %22
  %.not.i15 = icmp eq i32 %.val.i14, 0
  br i1 %.not.i15, label %lean_inc.exit13, label %27

27:                                               ; preds = %26
  tail call void @lean_inc_ref_cold(ptr noundef nonnull %19) #7
  br label %lean_inc.exit13

lean_inc.exit13:                                  ; preds = %27, %26, %24, %13
  %28 = ptrtoint ptr %17 to i64
  %29 = and i64 %28, 1
  %.not19 = icmp eq i64 %29, 0
  br i1 %.not19, label %30, label %lean_inc.exit

30:                                               ; preds = %lean_inc.exit13
  %.val.i16 = load i32, ptr %17, align 4, !tbaa !4
  %31 = icmp sgt i32 %.val.i16, 0
  br i1 %31, label %32, label %34, !prof !9

32:                                               ; preds = %30
  %33 = add nuw i32 %.val.i16, 1
  store i32 %33, ptr %17, align 4, !tbaa !4
  br label %lean_inc.exit

34:                                               ; preds = %30
  %.not.i17 = icmp eq i32 %.val.i16, 0
  br i1 %.not.i17, label %lean_inc.exit, label %35

35:                                               ; preds = %34
  tail call void @lean_inc_ref_cold(ptr noundef nonnull %17) #7
  br label %lean_inc.exit

lean_inc.exit:                                    ; preds = %35, %34, %32, %lean_inc.exit13
  tail call void @lean_inc_heartbeat() #7
  %36 = tail call noalias ptr @mi_malloc_small(i64 noundef 24) #7
  %37 = icmp eq ptr %36, null
  br i1 %37, label %38, label %lean_alloc_ctor.exit

38:                                               ; preds = %lean_inc.exit
  tail call void @lean_internal_panic_out_of_memory() #8
  unreachable

lean_alloc_ctor.exit:                             ; preds = %lean_inc.exit
  %39 = getelementptr inbounds nuw i8, ptr %36, i64 4
  store i32 1, ptr %36, align 4, !tbaa !4
  store i32 131096, ptr %39, align 4
  %40 = getelementptr inbounds nuw i8, ptr %36, i64 8
  store ptr %17, ptr %40, align 8, !tbaa !10
  %41 = getelementptr inbounds nuw i8, ptr %36, i64 16
  store ptr %19, ptr %41, align 8, !tbaa !10
  br label %42

42:                                               ; preds = %lean_alloc_ctor.exit, %11
  %.0 = phi ptr [ %12, %11 ], [ %36, %lean_alloc_ctor.exit ]
  ret ptr %.0
}